target datalayout = "e-m:e-p270:32:32-p271:32:32-p272:64:64-i64:64-i128:128-f80:128-n8:16:32:64-S128"
target triple = "x86_64-unknown-linux-gnu"

%"class.icu_75::UnicodeString" = type { %"class.icu_75::Replaceable", %"union.icu_75::UnicodeString::StackBufferOrFields" }
%"class.icu_75::Replaceable" = type { %"class.icu_75::UObject" }
%"class.icu_75::UObject" = type { ptr }
%"union.icu_75::UnicodeString::StackBufferOrFields" = type { %struct.anon.0, [32 x i8] }
%struct.anon.0 = type { i16, i32, i32, ptr }
%struct.anon = type { i16, [27 x i16] }
%"class.icu_75::Char16Ptr" = type { ptr }

; Function Attrs: mustprogress nounwind uwtable
define linkonce_odr noundef ptr @_ZNK6icu_759Char16Ptr3getEv(ptr noundef nonnull align 8 dereferenceable(8) %this) #0 comdat align 2 {
entry:
  %this.addr = alloca ptr, align 8
  store ptr %this, ptr %this.addr, align 8
  %this1 = load ptr, ptr %this.addr, align 8
  %p_ = getelementptr inbounds %"class.icu_75::Char16Ptr", ptr %this1, i32 0, i32 0
  %0 = load ptr, ptr %p_, align 8
  ret ptr %0
}

; Function Attrs: mustprogress nounwind uwtable
define linkonce_odr noundef i32 @_ZNK6icu_7513UnicodeString14getShortLengthEv(ptr noundef nonnull align 8 dereferenceable(64) %this) #0 comdat align 2 {
entry:
  %this.addr = alloca ptr, align 8
  store ptr %this, ptr %this.addr, align 8
  %this1 = load ptr, ptr %this.addr, align 8
  %fUnion = getelementptr inbounds %"class.icu_75::UnicodeString", ptr %this1, i32 0, i32 1
  %fLengthAndFlags = getelementptr inbounds %struct.anon.0, ptr %fUnion, i32 0, i32 0
  %0 = load i16, ptr %fLengthAndFlags, align 8
  %conv = sext i16 %0 to i32
  %shr = ashr i32 %conv, 5
  ret i32 %shr
}

; Function Attrs: mustprogress nounwind uwtable
define linkonce_odr noundef signext i8 @_ZNK6icu_7513UnicodeString14hasShortLengthEv(ptr noundef nonnull align 8 dereferenceable(64) %this) #0 comdat align 2 {
entry:
  %this.addr = alloca ptr, align 8
  store ptr %this, ptr %this.addr, align 8
  %this1 = load ptr, ptr %this.addr, align 8
  %fUnion = getelementptr inbounds %"class.icu_75::UnicodeString", ptr %this1, i32 0, i32 1
  %fLengthAndFlags = getelementptr inbounds %struct.anon.0, ptr %fUnion, i32 0, i32 0
  %0 = load i16, ptr %fLengthAndFlags, align 8
  %conv = sext i16 %0 to i32
  %cmp = icmp sge i32 %conv, 0
  %conv2 = zext i1 %cmp to i8
  ret i8 %conv2
}

; Function Attrs: mustprogress nounwind uwtable
define linkonce_odr noundef ptr @_ZNK6icu_7513UnicodeString13getArrayStartEv(ptr noundef nonnull align 8 dereferenceable(64) %this) #0 comdat align 2 {
entry:
  %this.addr = alloca ptr, align 8
  store ptr %this, ptr %this.addr, align 8
  %this1 = load ptr, ptr %this.addr, align 8
  %fUnion = getelementptr inbounds %"class.icu_75::UnicodeString", ptr %this1, i32 0, i32 1
  %fLengthAndFlags = getelementptr inbounds %struct.anon.0, ptr %fUnion, i32 0, i32 0
  %0 = load i16, ptr %fLengthAndFlags, align 8
  %conv = sext i16 %0 to i32
  %and = and i32 %conv, 2
  %tobool = icmp ne i32 %and, 0
  br i1 %tobool, label %cond.true, label %cond.false

cond.true:                                        ; preds = %entry
  %fUnion2 = getelementptr inbounds %"class.icu_75::UnicodeString", ptr %this1, i32 0, i32 1
  %fBuffer = getelementptr inbounds %struct.anon, ptr %fUnion2, i32 0, i32 1
  %arraydecay = getelementptr inbounds [27 x i16], ptr %fBuffer, i64 0, i64 0
  br label %cond.end

cond.false:                                       ; preds = %entry
  %fUnion3 = getelementptr inbounds %"class.icu_75::UnicodeString", ptr %this1, i32 0, i32 1
  %fArray = getelementptr inbounds %struct.anon.0, ptr %fUnion3, i32 0, i32 3
  %1 = load ptr, ptr %fArray, align 8
  br label %cond.end

cond.end:                                         ; preds = %cond.false, %cond.true
  %cond = phi ptr [ %arraydecay, %cond.true ], [ %1, %cond.false ]
  ret ptr %cond
}

; Function Attrs: mustprogress uwtable
define linkonce_odr noundef ptr @_ZNK6icu_759Char16PtrcvPDsEv(ptr noundef nonnull align 8 dereferenceable(8) %this) #3 comdat align 2 {
entry:
  %this.addr = alloca ptr, align 8
  store ptr %this, ptr %this.addr, align 8
  %this1 = load ptr, ptr %this.addr, align 8
  %call = call noundef ptr @_ZNK6icu_759Char16Ptr3getEv(ptr noundef nonnull align 8 dereferenceable(8) %this1)
  ret ptr %call
}

; Function Attrs: mustprogress nounwind uwtable
define linkonce_odr noundef signext i8 @_ZNK6icu_7513UnicodeString7isBogusEv(ptr noundef nonnull align 8 dereferenceable(64) %this) #0 comdat align 2 {
entry:
  %this.addr = alloca ptr, align 8
  store ptr %this, ptr %this.addr, align 8
  %this1 = load ptr, ptr %this.addr, align 8
  %fUnion = getelementptr inbounds %"class.icu_75::UnicodeString", ptr %this1, i32 0, i32 1
  %fLengthAndFlags = getelementptr inbounds %struct.anon.0, ptr %fUnion, i32 0, i32 0
  %0 = load i16, ptr %fLengthAndFlags, align 8
  %conv = sext i16 %0 to i32
  %and = and i32 %conv, 1
  %conv2 = trunc i32 %and to i8
  ret i8 %conv2
}

; Function Attrs: mustprogress nounwind uwtable
define internal noundef signext i8 @_ZL9U_SUCCESS10UErrorCode(i32 noundef %code) #0 {
entry:
  %code.addr = alloca i32, align 4
  store i32 %code, ptr %code.addr, align 4
  %0 = load i32, ptr %code.addr, align 4
  %cmp = icmp sle i32 %0, 0
  %conv = zext i1 %cmp to i8
  ret i8 %conv
}

; Function Attrs: mustprogress uwtable
define linkonce_odr noundef i32 @_ZNK6icu_7513UnicodeString6lengthEv(ptr noundef nonnull align 8 dereferenceable(64) %this) #3 comdat align 2 {
entry:
  %this.addr = alloca ptr, align 8
  store ptr %this, ptr %this.addr, align 8
  %this1 = load ptr, ptr %this.addr, align 8
  %call = call noundef signext i8 @_ZNK6icu_7513UnicodeString14hasShortLengthEv(ptr noundef nonnull align 8 dereferenceable(64) %this1)
  %tobool = icmp ne i8 %call, 0
  br i1 %tobool, label %cond.true, label %cond.false

cond.true:                                        ; preds = %entry
  %call2 = call noundef i32 @_ZNK6icu_7513UnicodeString14getShortLengthEv(ptr noundef nonnull align 8 dereferenceable(64) %this1)
  br label %cond.end

cond.false:                                       ; preds = %entry
  %fUnion = getelementptr inbounds %"class.icu_75::UnicodeString", ptr %this1, i32 0, i32 1
  %fLength = getelementptr inbounds %struct.anon.0, ptr %fUnion, i32 0, i32 1
  %0 = load i32, ptr %fLength, align 4
  br label %cond.end

cond.end:                                         ; preds = %cond.false, %cond.true
  %cond = phi i32 [ %call2, %cond.true ], [ %0, %cond.false ]
  ret i32 %cond
}

; Function Attrs: mustprogress uwtable
define noundef i32 @_ZNK6icu_7513UnicodeString7extractENS_9Char16PtrEiR10UErrorCode(ptr noundef nonnull align 8 dereferenceable(64) %this, ptr noundef %dest, i32 noundef %destCapacity, ptr noundef nonnull align 4 dereferenceable(4) %errorCode) #3 align 2 {
entry:
  %retval = alloca i32, align 4
  %this.addr = alloca ptr, align 8
  %dest.indirect_addr = alloca ptr, align 8
  %destCapacity.addr = alloca i32, align 4
  %errorCode.addr = alloca ptr, align 8
  %len = alloca i32, align 4
  %array = alloca ptr, align 8
  store ptr %this, ptr %this.addr, align 8
  store ptr %dest, ptr %dest.indirect_addr, align 8
  store i32 %destCapacity, ptr %destCapacity.addr, align 4
  store ptr %errorCode, ptr %errorCode.addr, align 8
  %this1 = load ptr, ptr %this.addr, align 8
  %call = call noundef i32 @_ZNK6icu_7513UnicodeString6lengthEv(ptr noundef nonnull align 8 dereferenceable(64) %this1)
  store i32 %call, ptr %len, align 4
  %0 = load ptr, ptr %errorCode.addr, align 8
  %1 = load i32, ptr %0, align 4
  %call2 = call noundef signext i8 @_ZL9U_SUCCESS10UErrorCode(i32 noundef %1)
  %tobool = icmp ne i8 %call2, 0
  br i1 %tobool, label %if.then, label %if.end23

if.then:                                          ; preds = %entry
  %call3 = call noundef signext i8 @_ZNK6icu_7513UnicodeString7isBogusEv(ptr noundef nonnull align 8 dereferenceable(64) %this1)
  %tobool4 = icmp ne i8 %call3, 0
  br i1 %tobool4, label %if.then9, label %lor.lhs.false

lor.lhs.false:                                    ; preds = %if.then
  %2 = load i32, ptr %destCapacity.addr, align 4
  %cmp = icmp slt i32 %2, 0
  br i1 %cmp, label %if.then9, label %lor.lhs.false5

lor.lhs.false5:                                   ; preds = %lor.lhs.false
  %3 = load i32, ptr %destCapacity.addr, align 4
  %cmp6 = icmp sgt i32 %3, 0
  br i1 %cmp6, label %land.lhs.true, label %if.else

land.lhs.true:                                    ; preds = %lor.lhs.false5
  %call7 = call noundef ptr @_ZNK6icu_759Char16PtrcvPDsEv(ptr noundef nonnull align 8 dereferenceable(8) %dest)
  %cmp8 = icmp eq ptr %call7, null
  br i1 %cmp8, label %if.then9, label %if.else

if.then9:                                         ; preds = %land.lhs.true, %lor.lhs.false, %if.then
  %4 = load ptr, ptr %errorCode.addr, align 8
  store i32 1, ptr %4, align 4
  br label %if.end22

if.else:                                          ; preds = %land.lhs.true, %lor.lhs.false5
  %call10 = call noundef ptr @_ZNK6icu_7513UnicodeString13getArrayStartEv(ptr noundef nonnull align 8 dereferenceable(64) %this1)
  store ptr %call10, ptr %array, align 8
  %5 = load i32, ptr %len, align 4
  %cmp11 = icmp sgt i32 %5, 0
  br i1 %cmp11, label %land.lhs.true12, label %if.end

land.lhs.true12:                                  ; preds = %if.else
  %6 = load i32, ptr %len, align 4
  %7 = load i32, ptr %destCapacity.addr, align 4
  %cmp13 = icmp sle i32 %6, %7
  br i1 %cmp13, label %land.lhs.true14, label %if.end

land.lhs.true14:                                  ; preds = %land.lhs.true12
  %8 = load ptr, ptr %array, align 8
  %call15 = call noundef ptr @_ZNK6icu_759Char16PtrcvPDsEv(ptr noundef nonnull align 8 dereferenceable(8) %dest)
  %cmp16 = icmp ne ptr %8, %call15
  br i1 %cmp16, label %if.then17, label %if.end

if.then17:                                        ; preds = %land.lhs.true14
  %call18 = call noundef ptr @_ZNK6icu_759Char16PtrcvPDsEv(ptr noundef nonnull align 8 dereferenceable(8) %dest)
  %9 = load ptr, ptr %array, align 8
  %10 = load i32, ptr %len, align 4
  %call19 = call ptr @u_memcpy_75(ptr noundef %call18, ptr noundef %9, i32 noundef %10)
  br label %if.end

if.end:                                           ; preds = %if.then17, %land.lhs.true14, %land.lhs.true12, %if.else
  %call20 = call noundef ptr @_ZNK6icu_759Char16PtrcvPDsEv(ptr noundef nonnull align 8 dereferenceable(8) %dest)
  %11 = load i32, ptr %destCapacity.addr, align 4
  %12 = load i32, ptr %len, align 4
  %13 = load ptr, ptr %errorCode.addr, align 8
  %call21 = call i32 @u_terminateUChars_75(ptr noundef %call20, i32 noundef %11, i32 noundef %12, ptr noundef %13)
  store i32 %call21, ptr %retval, align 4
  br label %return

if.end22:                                         ; preds = %if.then9
  br label %if.end23

if.end23:                                         ; preds = %if.end22, %entry
  %14 = load i32, ptr %len, align 4
  store i32 %14, ptr %retval, align 4
  br label %return

return:                                           ; preds = %if.end23, %if.end
  %15 = load i32, ptr %retval, align 4
  ret i32 %15
}