; Function Attrs: mustprogress uwtable
define noundef i32 @_ZNK6icu_7513UnicodeString7extractENS_9Char16PtrEiR10UErrorCode(ptr noundef nonnull align 8 dereferenceable(64) %this, ptr nocapture noundef readonly %dest, i32 noundef %destCapacity, ptr noundef nonnull align 4 dereferenceable(4) %errorCode) local_unnamed_addr #5 align 2 {
entry:
  %fUnion.i.i = getelementptr inbounds i8, ptr %this, i64 8
  %0 = load i16, ptr %fUnion.i.i, align 8
  %cmp.i.i = icmp slt i16 %0, 0
  %1 = ashr i16 %0, 5
  %shr.i.i = sext i16 %1 to i32
  %fLength.i = getelementptr inbounds i8, ptr %this, i64 12
  %2 = load i32, ptr %fLength.i, align 4
  %cond.i = select i1 %cmp.i.i, i32 %2, i32 %shr.i.i
  %3 = load i32, ptr %errorCode, align 4
  %cmp.i = icmp sgt i32 %3, 0
  br i1 %cmp.i, label %return, label %if.then

if.then:                                          ; preds = %entry
  %conv2.i14 = and i16 %0, 1
  %tobool4 = icmp ne i16 %conv2.i14, 0
  %cmp = icmp slt i32 %destCapacity, 0
  %or.cond = or i1 %cmp, %tobool4
  br i1 %or.cond, label %if.then9, label %lor.lhs.false5

lor.lhs.false5:                                   ; preds = %if.then
  %cmp6.not = icmp ne i32 %destCapacity, 0
  %.pre15.pre = load ptr, ptr %dest, align 8
  %cmp8 = icmp eq ptr %.pre15.pre, null
  %or.cond16 = select i1 %cmp6.not, i1 %cmp8, i1 false
  br i1 %or.cond16, label %if.then9, label %if.else

if.then9:                                         ; preds = %lor.lhs.false5, %if.then
  store i32 1, ptr %errorCode, align 4
  br label %return

if.else:                                          ; preds = %lor.lhs.false5
  %4 = and i16 %0, 2
  %tobool.not.i = icmp eq i16 %4, 0
  %fBuffer.i = getelementptr inbounds i8, ptr %this, i64 10
  %fArray.i = getelementptr inbounds i8, ptr %this, i64 24
  %5 = load ptr, ptr %fArray.i, align 8
  %cond.i13 = select i1 %tobool.not.i, ptr %5, ptr %fBuffer.i
  %cmp11 = icmp slt i32 %cond.i, 1
  %cmp13.not = icmp sgt i32 %cond.i, %destCapacity
  %or.cond11 = or i1 %cmp11, %cmp13.not
  %cmp16.not = icmp eq ptr %cond.i13, %.pre15.pre
  %or.cond17 = select i1 %or.cond11, i1 true, i1 %cmp16.not
  br i1 %or.cond17, label %if.end, label %if.then17

if.then17:                                        ; preds = %if.else
  %call19 = tail call ptr @u_memcpy_75(ptr noundef %.pre15.pre, ptr noundef %cond.i13, i32 noundef %cond.i)
  %.pre = load ptr, ptr %dest, align 8
  br label %if.end

if.end:                                           ; preds = %if.then17, %if.else
  %6 = phi ptr [ %.pre, %if.then17 ], [ %.pre15.pre, %if.else ]
  %call21 = tail call i32 @u_terminateUChars_75(ptr noundef %6, i32 noundef %destCapacity, i32 noundef %cond.i, ptr noundef nonnull %errorCode)
  br label %return

return:                                           ; preds = %entry, %if.then9, %if.end
  %retval.0 = phi i32 [ %call21, %if.end ], [ %cond.i, %if.then9 ], [ %cond.i, %entry ]
  ret i32 %retval.0
}